; Function Attrs: mustprogress nounwind uwtable
define dso_local void @_ZN5clang13ASTDeclWriter19VisitHLSLBufferDeclEPNS_14HLSLBufferDeclE(ptr noundef nonnull align 8 dereferenceable(241) %0, ptr noundef nonnull %1) local_unnamed_addr #0 align 2 {
  tail call void @_ZN5clang13ASTDeclWriter14VisitNamedDeclEPNS_9NamedDeclE(ptr noundef nonnull align 8 dereferenceable(241) %0, ptr noundef %1)
  %3 = getelementptr inbounds nuw i8, ptr %1, i64 48
  tail call void @_ZN5clang13ASTDeclWriter16VisitDeclContextEPNS_11DeclContextE(ptr noundef nonnull align 8 dereferenceable(241) %0, ptr noundef nonnull %3)
  %4 = getelementptr inbounds nuw i8, ptr %1, i64 92
  %5 = load i8, ptr %4, align 4
  %6 = getelementptr inbounds nuw i8, ptr %0, i64 32
  %7 = load ptr, ptr %6, align 8
  %8 = tail call noundef i64 @_ZNK4llvm15SmallVectorBaseIjE4sizeEv(ptr noundef nonnull align 8 dereferenceable(16) %7) #19
  %9 = add i64 %8, 1
  %10 = tail call noundef i64 @_ZNK4llvm15SmallVectorBaseIjE8capacityEv(ptr noundef nonnull align 8 dereferenceable(16) %7) #19
  %.not.i.i.i.i = icmp ugt i64 %9, %10
  br i1 %.not.i.i.i.i, label %11, label %_ZN5clang15ASTRecordWriter9push_backEm.exit

11:                                               ; preds = %2
  %12 = getelementptr inbounds nuw i8, ptr %7, i64 16
  tail call void @_ZN4llvm15SmallVectorBaseIjE8grow_podEPvmm(ptr noundef nonnull align 8 dereferenceable(16) %7, ptr noundef nonnull %12, i64 noundef %9, i64 noundef 8) #19
  br label %_ZN5clang15ASTRecordWriter9push_backEm.exit

_ZN5clang15ASTRecordWriter9push_backEm.exit:      ; preds = %2, %11
  %13 = and i8 %5, 1
  %14 = zext nneg i8 %13 to i64
  %15 = load ptr, ptr %7, align 8
  %16 = tail call noundef i64 @_ZNK4llvm15SmallVectorBaseIjE4sizeEv(ptr noundef nonnull align 8 dereferenceable(16) %7) #19
  %17 = getelementptr inbounds i64, ptr %15, i64 %16
  store i64 %14, ptr %17, align 1
  %18 = tail call noundef i64 @_ZNK4llvm15SmallVectorBaseIjE4sizeEv(ptr noundef nonnull align 8 dereferenceable(16) %7) #19
  %19 = add i64 %18, 1
  tail call void @_ZN4llvm15SmallVectorBaseIjE8set_sizeEm(ptr noundef nonnull align 8 dereferenceable(16) %7, i64 noundef %19) #19
  %20 = getelementptr inbounds nuw i8, ptr %1, i64 88
  %.sroa.0.0.copyload.i = load i32, ptr %20, align 8
  %21 = getelementptr inbounds nuw i8, ptr %0, i64 24
  %22 = load ptr, ptr %21, align 8
  %23 = load ptr, ptr %6, align 8
  tail call void @_ZN5clang9ASTWriter17AddSourceLocationENS_14SourceLocationERN4llvm15SmallVectorImplImEEPNS_22SourceLocationSequenceE(ptr noundef nonnull align 8 dereferenceable(3340) %22, i32 %.sroa.0.0.copyload.i, ptr noundef nonnull align 8 dereferenceable(16) %23, ptr noundef null) #19
  %24 = getelementptr inbounds nuw i8, ptr %1, i64 80
  %.sroa.0.0.copyload.i9 = load i32, ptr %24, align 8
  %25 = load ptr, ptr %21, align 8
  %26 = load ptr, ptr %6, align 8
  tail call void @_ZN5clang9ASTWriter17AddSourceLocationENS_14SourceLocationERN4llvm15SmallVectorImplImEEPNS_22SourceLocationSequenceE(ptr noundef nonnull align 8 dereferenceable(3340) %25, i32 %.sroa.0.0.copyload.i9, ptr noundef nonnull align 8 dereferenceable(16) %26, ptr noundef null) #19
  %27 = getelementptr inbounds nuw i8, ptr %1, i64 84
  %.sroa.0.0.copyload.i10 = load i32, ptr %27, align 4
  %28 = load ptr, ptr %21, align 8
  %29 = load ptr, ptr %6, align 8
  tail call void @_ZN5clang9ASTWriter17AddSourceLocationENS_14SourceLocationERN4llvm15SmallVectorImplImEEPNS_22SourceLocationSequenceE(ptr noundef nonnull align 8 dereferenceable(3340) %28, i32 %.sroa.0.0.copyload.i10, ptr noundef nonnull align 8 dereferenceable(16) %29, ptr noundef null) #19
  %30 = getelementptr inbounds nuw i8, ptr %0, i64 232
  store i32 138, ptr %30, align 8
  ret void
}